target datalayout = "e-m:e-p270:32:32-p271:32:32-p272:64:64-i64:64-i128:128-f80:128-n8:16:32:64-S128"
target triple = "x86_64-pc-linux-gnu"

%struct.LogicalDecodingContext = type { ptr, ptr, ptr, ptr, ptr, i8, %struct.OutputPluginCallbacks, %struct.OutputPluginOptions, ptr, ptr, ptr, ptr, ptr, ptr, ptr, i8, i8, i8, i8, i8, i64, i32, i8, i8 }
%struct.OutputPluginCallbacks = type { ptr, ptr, ptr, ptr, ptr, ptr, ptr, ptr, ptr, ptr, ptr, ptr, ptr, ptr, ptr, ptr, ptr, ptr, ptr, ptr, ptr }
%struct.OutputPluginOptions = type { i32, i8 }
%struct.LogicalErrorCallbackState = type { ptr, ptr, i64 }
%struct.ErrorContextCallback = type { ptr, ptr, ptr }

@error_context_stack = external global ptr, align 8
@.str.21 = private unnamed_addr constant [17 x i8] c"filter_by_origin\00", align 1

; Function Attrs: nounwind uwtable
define dso_local zeroext i1 @filter_by_origin_cb_wrapper(ptr noundef %0, i16 noundef zeroext %1) #0 {
  %3 = alloca ptr, align 8
  %4 = alloca i16, align 2
  %5 = alloca %struct.LogicalErrorCallbackState, align 8
  %6 = alloca %struct.ErrorContextCallback, align 8
  %7 = alloca i8, align 1
  store ptr %0, ptr %3, align 8
  store i16 %1, ptr %4, align 2
  call void @llvm.lifetime.start.p0(i64 24, ptr %5) #10
  call void @llvm.lifetime.start.p0(i64 24, ptr %6) #10
  call void @llvm.lifetime.start.p0(i64 1, ptr %7) #10
  %8 = load ptr, ptr %3, align 8
  %9 = getelementptr inbounds nuw %struct.LogicalErrorCallbackState, ptr %5, i32 0, i32 0
  store ptr %8, ptr %9, align 8
  %10 = getelementptr inbounds nuw %struct.LogicalErrorCallbackState, ptr %5, i32 0, i32 1
  store ptr @.str.21, ptr %10, align 8
  %11 = getelementptr inbounds nuw %struct.LogicalErrorCallbackState, ptr %5, i32 0, i32 2
  store i64 0, ptr %11, align 8
  %12 = getelementptr inbounds nuw %struct.ErrorContextCallback, ptr %6, i32 0, i32 1
  store ptr @output_plugin_error_callback, ptr %12, align 8
  %13 = getelementptr inbounds nuw %struct.ErrorContextCallback, ptr %6, i32 0, i32 2
  store ptr %5, ptr %13, align 8
  %14 = load ptr, ptr @error_context_stack, align 8
  %15 = getelementptr inbounds nuw %struct.ErrorContextCallback, ptr %6, i32 0, i32 0
  store ptr %14, ptr %15, align 8
  store ptr %6, ptr @error_context_stack, align 8
  %16 = load ptr, ptr %3, align 8
  %17 = getelementptr inbounds nuw %struct.LogicalDecodingContext, ptr %16, i32 0, i32 18
  store i8 0, ptr %17, align 1
  %18 = load ptr, ptr %3, align 8
  %19 = getelementptr inbounds nuw %struct.LogicalDecodingContext, ptr %18, i32 0, i32 22
  store i8 0, ptr %19, align 4
  %20 = load ptr, ptr %3, align 8
  %21 = getelementptr inbounds nuw %struct.LogicalDecodingContext, ptr %20, i32 0, i32 6
  %22 = getelementptr inbounds nuw %struct.OutputPluginCallbacks, ptr %21, i32 0, i32 6
  %23 = load ptr, ptr %22, align 8
  %24 = load ptr, ptr %3, align 8
  %25 = load i16, ptr %4, align 2
  %26 = call zeroext i1 %23(ptr noundef %24, i16 noundef zeroext %25)
  %27 = zext i1 %26 to i8
  store i8 %27, ptr %7, align 1
  %28 = getelementptr inbounds nuw %struct.ErrorContextCallback, ptr %6, i32 0, i32 0
  %29 = load ptr, ptr %28, align 8
  store ptr %29, ptr @error_context_stack, align 8
  %30 = load i8, ptr %7, align 1, !range !6, !noundef !7
  %31 = trunc i8 %30 to i1
  call void @llvm.lifetime.end.p0(i64 1, ptr %7) #10
  call void @llvm.lifetime.end.p0(i64 24, ptr %6) #10
  call void @llvm.lifetime.end.p0(i64 24, ptr %5) #10
  ret i1 %31
}