; Function Attrs: nounwind uwtable
define dso_local zeroext i1 @filter_by_origin_cb_wrapper(ptr noundef %0, i16 noundef zeroext %1) local_unnamed_addr #0 {
  %3 = alloca %struct.LogicalErrorCallbackState, align 8
  %4 = alloca %struct.ErrorContextCallback, align 8
  call void @llvm.lifetime.start.p0(i64 24, ptr nonnull %3) #10
  call void @llvm.lifetime.start.p0(i64 24, ptr nonnull %4) #10
  store ptr %0, ptr %3, align 8
  %5 = getelementptr inbounds nuw i8, ptr %3, i64 8
  store ptr @.str.21, ptr %5, align 8
  %6 = getelementptr inbounds nuw i8, ptr %3, i64 16
  store i64 0, ptr %6, align 8
  %7 = getelementptr inbounds nuw i8, ptr %4, i64 8
  store ptr @output_plugin_error_callback, ptr %7, align 8
  %8 = getelementptr inbounds nuw i8, ptr %4, i64 16
  store ptr %3, ptr %8, align 8
  %9 = load ptr, ptr @error_context_stack, align 8
  store ptr %9, ptr %4, align 8
  store ptr %4, ptr @error_context_stack, align 8
  %10 = getelementptr inbounds nuw i8, ptr %0, i64 283
  store i8 0, ptr %10, align 1
  %11 = getelementptr inbounds nuw i8, ptr %0, i64 300
  store i8 0, ptr %11, align 4
  %12 = getelementptr inbounds nuw i8, ptr %0, i64 96
  %13 = load ptr, ptr %12, align 8
  %14 = call zeroext i1 %13(ptr noundef %0, i16 noundef zeroext %1) #10
  %15 = load ptr, ptr %4, align 8
  store ptr %15, ptr @error_context_stack, align 8
  call void @llvm.lifetime.end.p0(i64 24, ptr nonnull %4) #10
  call void @llvm.lifetime.end.p0(i64 24, ptr nonnull %3) #10
  ret i1 %14
}